; Function Attrs: mustprogress uwtable
define void @_ZN3gmx22printBinaryInformationEP8_IO_FILERKNS_15IProgramContextERKNS_25BinaryInformationSettingsE(ptr noundef %0, ptr noundef nonnull align 8 dereferenceable(8) %1, ptr noundef nonnull readonly align 8 captures(none) dereferenceable(24) %2) local_unnamed_addr #12 personality ptr @__gxx_personality_v0 {
  %4 = alloca %"class.gmx::TextWriter", align 8
  call void @llvm.lifetime.start.p0(i64 8, ptr nonnull %4) #22
  invoke void @_ZN3gmx10TextWriterC1EP8_IO_FILE(ptr noundef nonnull align 8 dereferenceable(8) %4, ptr noundef %0)
          to label %5 unwind label %7

5:                                                ; preds = %3
  invoke void @_ZN3gmx22printBinaryInformationEPNS_10TextWriterERKNS_15IProgramContextERKNS_25BinaryInformationSettingsE(ptr noundef nonnull %4, ptr noundef nonnull align 8 dereferenceable(8) %1, ptr noundef nonnull align 8 dereferenceable(24) %2)
          to label %6 unwind label %9

6:                                                ; preds = %5
  call void @_ZN3gmx10TextWriterD1Ev(ptr noundef nonnull align 8 dereferenceable(8) %4) #22
  call void @llvm.lifetime.end.p0(i64 8, ptr nonnull %4) #22
  ret void

7:                                                ; preds = %3
  %8 = landingpad { ptr, i32 }
          cleanup
          catch ptr @_ZTISt9exception
  br label %11

9:                                                ; preds = %5
  %10 = landingpad { ptr, i32 }
          cleanup
          catch ptr @_ZTISt9exception
  call void @_ZN3gmx10TextWriterD1Ev(ptr noundef nonnull align 8 dereferenceable(8) %4) #22
  br label %11

11:                                               ; preds = %9, %7
  %.pn = phi { ptr, i32 } [ %10, %9 ], [ %8, %7 ]
  %.07 = extractvalue { ptr, i32 } %.pn, 1
  call void @llvm.lifetime.end.p0(i64 8, ptr nonnull %4) #22
  %12 = call i32 @llvm.eh.typeid.for.p0(ptr nonnull @_ZTISt9exception) #22
  %13 = icmp eq i32 %.07, %12
  br i1 %13, label %14, label %19

14:                                               ; preds = %11
  %.0 = extractvalue { ptr, i32 } %.pn, 0
  %15 = call ptr @__cxa_begin_catch(ptr %.0) #22
  invoke void @_ZN3gmx28processExceptionAsFatalErrorERKSt9exception(ptr noundef nonnull align 8 dereferenceable(8) %15) #26
          to label %16 unwind label %17

16:                                               ; preds = %14
  unreachable

17:                                               ; preds = %14
  %18 = landingpad { ptr, i32 }
          cleanup
  invoke void @__cxa_end_catch()
          to label %19 unwind label %20

19:                                               ; preds = %17, %11
  %.merged = phi { ptr, i32 } [ %.pn, %11 ], [ %18, %17 ]
  resume { ptr, i32 } %.merged

20:                                               ; preds = %17
  %21 = landingpad { ptr, i32 }
          catch ptr null
  %22 = extractvalue { ptr, i32 } %21, 0
  call void @__clang_call_terminate(ptr %22) #25
  unreachable
}